Certificate Request:
    Data:
        Version: 0 (0x0)
        Subject: C=AU, ST=Some-State, O=A
        Subject Public Key Info:
            Public Key Algorithm: rsaEncryption
                Public-Key: (1024 bit)
                Modulus:
                    00:cb:9e:50:a1:9a:a9:56:ec:60:d7:86:ce:15:cc:
                    24:fc:55:6a:27:1f:a5:16:b9:7d:4b:df:0d:04:66:
                    7b:04:73:10:d9:a9:ab:fd:66:80:3d:11:88:06:2f:
                    62:ee:d1:86:1b:2a:09:d0:26:ee:84:ab:ae:da:a8:
                    b1:bf:a7:61:b2:74:bf:ce:03:48:f7:fa:89:de:83:
                    28:77:cb:b4:21:a4:5e:f3:22:9e:9e:01:24:e3:3a:
                    16:b7:fc:28:a2:19:9d:77:a8:91:d0:c0:0e:55:e4:
                    c1:4b:dd:2d:7a:a3:ab:7b:4d:e3:14:34:7c:e4:7a:
                    ea:7c:55:72:43:e1:27:65:29
                Exponent: 65537 (0x10001)
        Attributes:
            a0:00
    Signature Algorithm: sha256WithRSAEncryption
         51:00:cc:d0:73:7b:79:cb:ca:e6:bd:f2:5d:c0:b3:77:68:37:
         99:40:60:25:b0:f5:f6:29:ff:7b:58:f0:81:94:eb:d2:9b:69:
         87:71:e4:d4:54:0f:11:a3:32:37:ec:d0:f3:46:a4:a6:f0:74:
         b0:4a:ca:61:a1:d8:a6:8c:13:50:ab:3a:a9:a2:05:ca:8a:c1:
         96:75:e5:b0:b0:49:25:dd:71:40:5c:54:7d:a9:a8:88:53:27:
         ac:f2:77:9d:56:3f:04:8d:be:8e:77:da:d3:d1:a9:c7:5d:fd:
         9d:30:12:53:7e:da:c1:2b:be:84:84:e0:80:eb:cc:a4:b4:36:
         ac:46
-----BEGIN CERTIFICATE REQUEST-----
MIIBbTCB1wIBADAuMQswCQYDVQQGEwJBVTETMBEGA1UECAwKU29tZS1TdGF0ZTEK
MAgGA1UECgwBQTCBnzANBgkqhkiG9w0BAQEFAAOBjQAwgYkCgYEAy55QoZqpVuxg
14bOFcwk/FVqJx+lFrl9S98NBGZ7BHMQ2amr/WaAPRGIBi9i7tGGGyoJ0CbuhKuu
2qixv6dhsnS/zgNI9/qJ3oMod8u0IaRe8yKengEk4zoWt/woohmdd6iR0MAOVeTB
S90teqOre03jFDR85HrqfFVyQ+EnZSkCAwEAAaAAMA0GCSqGSIb3DQEBCwUAA4GB
AFEAzNBze3nLyua98l3As3doN5lAYCWw9fYp/3tY8IGU69KbaYdx5NRUDxGjMjfs
0PNGpKbwdLBKymGh2KaME1CrOqmiBcqKwZZ15bCwSSXdcUBcVH2pqIhTJ6zyd51W
PwSNvo532tPRqcdd/Z0wElN+2sErvoSE4IDrzKS0NqxG
-----END CERTIFICATE REQUEST-----
