Certificate Request:
    Data:
        Version: 0 (0x0)
        Subject: C=AU, ST=Some-State, O=B
        Subject Public Key Info:
            Public Key Algorithm: rsaEncryption
                Public-Key: (1024 bit)
                Modulus:
                    00:c9:ae:d7:8c:cd:39:fd:80:5a:25:c3:85:38:0a:
                    c7:05:b8:f3:97:c9:60:c1:62:db:10:1a:ec:e3:99:
                    0d:c1:f2:e1:1e:44:a4:17:02:19:bd:c2:8f:0f:bf:
                    46:5d:e4:5a:14:bc:c6:e7:cf:d6:7a:ea:c3:9f:87:
                    cc:ff:ed:96:d2:97:ac:68:c1:47:d8:f7:e2:67:7e:
                    66:23:86:c2:ee:e4:f4:0f:6c:b6:3a:c4:ee:2f:c7:
                    44:4a:72:0a:37:ff:9d:ea:df:e6:98:4d:0c:b2:0c:
                    b3:70:bd:4d:3e:47:d2:39:4e:04:ae:d1:d9:fb:1e:
                    56:57:e1:db:3b:f8:85:79:1d
                Exponent: 65537 (0x10001)
        Attributes:
            a0:00
    Signature Algorithm: sha256WithRSAEncryption
         bc:41:1b:09:fb:6a:28:99:bd:79:e7:42:aa:ff:d6:8e:ac:9f:
         c6:ab:9a:a5:59:3c:57:fa:9a:9a:b8:4f:21:66:d9:a0:e5:7f:
         a3:59:03:c0:f5:75:d2:53:f1:1d:cb:f7:af:cd:7a:88:3b:f8:
         dc:fd:9e:17:3f:d0:8d:58:79:8d:54:fe:a5:b6:10:0f:9d:d4:
         59:c4:11:d1:52:f9:9a:a4:ec:3f:94:77:7f:6a:06:ef:be:e8:
         50:a1:22:f2:4c:60:8d:5d:26:d7:1e:9c:be:d3:bf:ee:4b:2b:
         c4:0e:0c:3f:75:5b:46:75:6a:11:8a:10:98:14:dd:2d:57:81:
         e7:1e
-----BEGIN CERTIFICATE REQUEST-----
MIIBbTCB1wIBADAuMQswCQYDVQQGEwJBVTETMBEGA1UECAwKU29tZS1TdGF0ZTEK
MAgGA1UECgwBQjCBnzANBgkqhkiG9w0BAQEFAAOBjQAwgYkCgYEAya7XjM05/YBa
JcOFOArHBbjzl8lgwWLbEBrs45kNwfLhHkSkFwIZvcKPD79GXeRaFLzG58/WeurD
n4fM/+2W0pesaMFH2PfiZ35mI4bC7uT0D2y2OsTuL8dESnIKN/+d6t/mmE0Msgyz
cL1NPkfSOU4ErtHZ+x5WV+HbO/iFeR0CAwEAAaAAMA0GCSqGSIb3DQEBCwUAA4GB
ALxBGwn7aiiZvXnnQqr/1o6sn8armqVZPFf6mpq4TyFm2aDlf6NZA8D1ddJT8R3L
96/Neog7+Nz9nhc/0I1YeY1U/qW2EA+d1FnEEdFS+Zqk7D+Ud39qBu++6FChIvJM
YI1dJtcenL7Tv+5LK8QODD91W0Z1ahGKEJgU3S1Xgece
-----END CERTIFICATE REQUEST-----
