Certificate Request:
    Data:
        Version: 0 (0x0)
        Subject: C=AU, ST=Some-State, O=C
        Subject Public Key Info:
            Public Key Algorithm: rsaEncryption
                Public-Key: (1024 bit)
                Modulus:
                    00:c3:b0:7b:d6:03:96:d1:c5:33:3f:dc:48:43:1f:
                    6e:e4:09:dd:3d:46:85:e9:11:ce:b2:88:97:ba:f7:
                    e0:22:7a:eb:b2:f4:6c:b0:44:79:ff:1e:7b:c6:19:
                    39:20:66:af:3d:66:8f:17:b2:97:30:53:63:53:c6:
                    ef:a3:56:b7:9b:6c:21:11:da:16:30:92:15:71:c7:
                    97:63:e1:4e:a3:18:bf:d9:67:57:4b:1a:13:89:97:
                    ce:14:e0:fd:2e:4e:e3:32:20:5d:db:ba:50:11:7c:
                    77:ca:40:ae:6d:59:2c:b7:34:f8:ec:ce:7b:7a:4f:
                    8b:29:80:e6:c0:41:53:28:17
                Exponent: 65537 (0x10001)
        Attributes:
            a0:00
    Signature Algorithm: sha256WithRSAEncryption
         5c:f3:7d:5e:63:11:71:42:b3:52:1d:e4:f4:e5:4a:cd:81:77:
         20:9f:49:e0:7a:9c:18:2b:99:79:68:41:09:99:d2:41:55:1a:
         fb:89:5e:52:d7:52:9e:b3:f0:7e:f8:f7:35:19:08:83:e4:06:
         af:c6:33:fb:c0:60:dd:17:cc:7e:6f:c3:fd:77:b3:5b:fb:b0:
         b3:f7:76:46:c8:b5:56:6e:8a:0a:6a:c9:ca:3b:02:35:59:d8:
         04:d9:24:6a:b9:f3:c4:cb:d0:bf:d6:ef:05:2b:c1:5b:83:08:
         60:4f:a0:05:b5:ff:ab:d0:60:a9:27:46:95:06:8d:95:0e:a3:
         ee:e2
-----BEGIN CERTIFICATE REQUEST-----
MIIBbTCB1wIBADAuMQswCQYDVQQGEwJBVTETMBEGA1UECAwKU29tZS1TdGF0ZTEK
MAgGA1UECgwBQzCBnzANBgkqhkiG9w0BAQEFAAOBjQAwgYkCgYEAw7B71gOW0cUz
P9xIQx9u5AndPUaF6RHOsoiXuvfgInrrsvRssER5/x57xhk5IGavPWaPF7KXMFNj
U8bvo1a3m2whEdoWMJIVcceXY+FOoxi/2WdXSxoTiZfOFOD9Lk7jMiBd27pQEXx3
ykCubVkstzT47M57ek+LKYDmwEFTKBcCAwEAAaAAMA0GCSqGSIb3DQEBCwUAA4GB
AFzzfV5jEXFCs1Id5PTlSs2BdyCfSeB6nBgrmXloQQmZ0kFVGvuJXlLXUp6z8H74
9zUZCIPkBq/GM/vAYN0XzH5vw/13s1v7sLP3dkbItVZuigpqyco7AjVZ2ATZJGq5
88TL0L/W7wUrwVuDCGBPoAW1/6vQYKknRpUGjZUOo+7i
-----END CERTIFICATE REQUEST-----
